ARM GAS  C:\Users\HP\AppData\Local\Temp\cc7Hwfq7.s 			page 1


   1              		.syntax unified
   2              		.cpu cortex-m3
   3              		.fpu softvfp
   4              		.eabi_attribute 20, 1
   5              		.eabi_attribute 21, 1
   6              		.eabi_attribute 23, 3
   7              		.eabi_attribute 24, 1
   8              		.eabi_attribute 25, 1
   9              		.eabi_attribute 26, 1
  10              		.eabi_attribute 30, 1
  11              		.eabi_attribute 34, 1
  12              		.eabi_attribute 18, 4
  13              		.thumb
  14              		.syntax unified
  15              		.file	"cfar.c"
  16              		.text
  17              	.Ltext0:
  18              		.cfi_sections	.debug_frame
  19              		.global	__aeabi_i2d
  20              		.global	__aeabi_ddiv
  21              		.global	__aeabi_f2d
  22              		.global	__aeabi_dsub
  23              		.global	__aeabi_dmul
  24              		.global	__aeabi_d2f
  25              		.global	__aeabi_i2f
  26              		.global	__aeabi_fmul
  27              		.global	__aeabi_fadd
  28              		.global	__aeabi_fcmplt
  29              		.section	.text.CFAR,"ax",%progbits
  30              		.align	2
  31              		.global	CFAR
  32              		.thumb
  33              		.thumb_func
  34              		.type	CFAR, %function
  35              	CFAR:
  36              	.LFB63:
  37              		.file 1 "sources\\asw\\cfar.c"
   1:sources\asw/cfar.c **** /**
   2:sources\asw/cfar.c ****  * @file cfar.c
   3:sources\asw/cfar.c ****  * @brief CA-CFAR implementation file.
   4:sources\asw/cfar.c ****  * This file contains the implementations of the CA-CFAR.
   5:sources\asw/cfar.c ****  */
   6:sources\asw/cfar.c **** 
   7:sources\asw/cfar.c **** #include "cfar.h"
   8:sources\asw/cfar.c **** #include "project.h"
   9:sources\asw/cfar.c **** 
  10:sources\asw/cfar.c **** #include <string.h>
  11:sources\asw/cfar.c **** #include <math.h>
  12:sources\asw/cfar.c **** 
  13:sources\asw/cfar.c **** /**
  14:sources\asw/cfar.c ****  * @brief CFAR (Constant False Alarm Rate) detection function.
  15:sources\asw/cfar.c ****  * 
  16:sources\asw/cfar.c ****  * This function performs CFAR detection on the provided FFT array. 
  17:sources\asw/cfar.c ****  * CFAR is a widely used technique in radar signal processing to detect targets by 
  18:sources\asw/cfar.c ****  * adjusting the detection threshold according to the noise level.
  19:sources\asw/cfar.c ****  *
  20:sources\asw/cfar.c ****  * @param FFT_Array Pointer to the FFT data array (interleaved real and imaginary parts).
ARM GAS  C:\Users\HP\AppData\Local\Temp\cc7Hwfq7.s 			page 2


  21:sources\asw/cfar.c ****  * @param params Pointer to the FFT_CFAR_t structure containing the parameters for CFAR processing.
  22:sources\asw/cfar.c ****  * 
  23:sources\asw/cfar.c ****  * The FFT_CFAR_t structure should include the following fields:
  24:sources\asw/cfar.c ****  * - N: Number of points in the FFT array.
  25:sources\asw/cfar.c ****  * - NR: Number of reference cells used to estimate the noise level.
  26:sources\asw/cfar.c ****  * - NG: Number of guard cells around the cell under test (CUT).
  27:sources\asw/cfar.c ****  * - PFA: Desired probability of false alarm.
  28:sources\asw/cfar.c ****  * - threshold_m: Array to store the computed threshold values.
  29:sources\asw/cfar.c ****  * - detections: Array to store the detection results (1 for detection, 0 for no detection).
  30:sources\asw/cfar.c ****  * - CFAR_filled: Counter for the number of detections.
  31:sources\asw/cfar.c ****  * 
  32:sources\asw/cfar.c ****  * This function will modify the 'threshold_m' and 'detections' arrays within the params structure.
  33:sources\asw/cfar.c ****  * The FFT_Array is assumed to be of size 5*N (real and imaginary parts interleaved).
  34:sources\asw/cfar.c ****  * The function will also zero out the first element of the fft_magnitude array for noise estimatio
  35:sources\asw/cfar.c ****  *
  36:sources\asw/cfar.c ****  * @return void
  37:sources\asw/cfar.c ****  */
  38:sources\asw/cfar.c **** 
  39:sources\asw/cfar.c **** void CFAR(int32 *FFT_Array, FFT_CFAR_t *params) 
  40:sources\asw/cfar.c **** {
  38              		.loc 1 40 0
  39              		.cfi_startproc
  40              		@ args = 0, pretend = 0, frame = 8
  41              		@ frame_needed = 1, uses_anonymous_args = 0
  42              	.LVL0:
  43 0000 2DE9F04F 		push	{r4, r5, r6, r7, r8, r9, r10, fp, lr}
  44              		.cfi_def_cfa_offset 36
  45              		.cfi_offset 4, -36
  46              		.cfi_offset 5, -32
  47              		.cfi_offset 6, -28
  48              		.cfi_offset 7, -24
  49              		.cfi_offset 8, -20
  50              		.cfi_offset 9, -16
  51              		.cfi_offset 10, -12
  52              		.cfi_offset 11, -8
  53              		.cfi_offset 14, -4
  54 0004 83B0     		sub	sp, sp, #12
  55              		.cfi_def_cfa_offset 48
  56 0006 00AF     		add	r7, sp, #0
  57              		.cfi_def_cfa_register 7
  58 0008 0446     		mov	r4, r0
  59 000a 8B46     		mov	fp, r1
  41:sources\asw/cfar.c ****     int i, j;
  42:sources\asw/cfar.c ****     float noise_level_m;
  43:sources\asw/cfar.c ****     float alpha = params->NR * (pow(params->PFA, -1.0 / params->NR) - 1);
  60              		.loc 1 43 0
  61 000c D1F80CA0 		ldr	r10, [r1, #12]	@ float
  62 0010 4868     		ldr	r0, [r1, #4]
  63              	.LVL1:
  64 0012 FFF7FEFF 		bl	__aeabi_i2d
  65              	.LVL2:
  66 0016 8046     		mov	r8, r0
  67 0018 8946     		mov	r9, r1
  68 001a 0246     		mov	r2, r0
  69 001c 0B46     		mov	r3, r1
  70 001e 0020     		movs	r0, #0
  71 0020 5949     		ldr	r1, .L16
ARM GAS  C:\Users\HP\AppData\Local\Temp\cc7Hwfq7.s 			page 3


  72 0022 FFF7FEFF 		bl	__aeabi_ddiv
  73              	.LVL3:
  74 0026 0546     		mov	r5, r0
  75 0028 0E46     		mov	r6, r1
  76 002a 5046     		mov	r0, r10
  77 002c FFF7FEFF 		bl	__aeabi_f2d
  78              	.LVL4:
  79 0030 2A46     		mov	r2, r5
  80 0032 3346     		mov	r3, r6
  81 0034 FFF7FEFF 		bl	pow
  82              	.LVL5:
  83 0038 0022     		movs	r2, #0
  84 003a 544B     		ldr	r3, .L16+4
  85 003c FFF7FEFF 		bl	__aeabi_dsub
  86              	.LVL6:
  87 0040 0246     		mov	r2, r0
  88 0042 0B46     		mov	r3, r1
  89 0044 4046     		mov	r0, r8
  90 0046 4946     		mov	r1, r9
  91 0048 FFF7FEFF 		bl	__aeabi_dmul
  92              	.LVL7:
  93 004c FFF7FEFF 		bl	__aeabi_d2f
  94              	.LVL8:
  95 0050 7860     		str	r0, [r7, #4]	@ float
  96              	.LVL9:
  44:sources\asw/cfar.c ****     float fft_magnitude[params->N];
  97              		.loc 1 44 0
  98 0052 DBF80020 		ldr	r2, [fp]
  99              	.LVL10:
 100 0056 9200     		lsls	r2, r2, #2
 101              	.LVL11:
 102 0058 02F10A03 		add	r3, r2, #10
 103 005c 23F00703 		bic	r3, r3, #7
 104 0060 ADEB030D 		sub	sp, sp, r3
 105 0064 6E46     		mov	r6, sp
 106              	.LVL12:
  45:sources\asw/cfar.c **** 
  46:sources\asw/cfar.c ****     memset(fft_magnitude, 0, sizeof(fft_magnitude)); // Clear fft_magnitude array
 107              		.loc 1 46 0
 108 0066 0021     		movs	r1, #0
 109 0068 6846     		mov	r0, sp
 110              	.LVL13:
 111 006a FFF7FEFF 		bl	memset
 112              	.LVL14:
  47:sources\asw/cfar.c **** 
  48:sources\asw/cfar.c ****     // Compute FFT magnitudes
  49:sources\asw/cfar.c ****     for (i = 0; i < params->N; i++)
 113              		.loc 1 49 0
 114 006e 0025     		movs	r5, #0
 115 0070 1CE0     		b	.L2
 116              	.LVL15:
 117              	.L3:
 118              	.LBB2:
  50:sources\asw/cfar.c ****     {
  51:sources\asw/cfar.c ****         float real = (float)FFT_Array[2 * i];
 119              		.loc 1 51 0 discriminator 3
 120 0072 4FEAC508 		lsl	r8, r5, #3
ARM GAS  C:\Users\HP\AppData\Local\Temp\cc7Hwfq7.s 			page 4


 121 0076 54F83500 		ldr	r0, [r4, r5, lsl #3]
 122 007a FFF7FEFF 		bl	__aeabi_i2f
 123              	.LVL16:
 124 007e 8146     		mov	r9, r0
 125              	.LVL17:
  52:sources\asw/cfar.c ****         float imag = (float)FFT_Array[2 * i + 1];
 126              		.loc 1 52 0 discriminator 3
 127 0080 A044     		add	r8, r8, r4
 128 0082 D8F80400 		ldr	r0, [r8, #4]
 129              	.LVL18:
 130 0086 FFF7FEFF 		bl	__aeabi_i2f
 131              	.LVL19:
 132 008a 8046     		mov	r8, r0
 133              	.LVL20:
  53:sources\asw/cfar.c ****         fft_magnitude[i] = real * real + imag * imag; // Compute power spectrum
 134              		.loc 1 53 0 discriminator 3
 135 008c 4946     		mov	r1, r9
 136 008e 4846     		mov	r0, r9
 137              	.LVL21:
 138 0090 FFF7FEFF 		bl	__aeabi_fmul
 139              	.LVL22:
 140 0094 8146     		mov	r9, r0
 141              	.LVL23:
 142 0096 4146     		mov	r1, r8
 143 0098 4046     		mov	r0, r8
 144 009a FFF7FEFF 		bl	__aeabi_fmul
 145              	.LVL24:
 146 009e 0146     		mov	r1, r0
 147 00a0 4846     		mov	r0, r9
 148 00a2 FFF7FEFF 		bl	__aeabi_fadd
 149              	.LVL25:
 150 00a6 46F82500 		str	r0, [r6, r5, lsl #2]	@ float
 151              	.LBE2:
  49:sources\asw/cfar.c ****     {
 152              		.loc 1 49 0 discriminator 3
 153 00aa 0135     		adds	r5, r5, #1
 154              	.LVL26:
 155              	.L2:
  49:sources\asw/cfar.c ****     {
 156              		.loc 1 49 0 is_stmt 0 discriminator 1
 157 00ac DBF80030 		ldr	r3, [fp]
 158 00b0 9D42     		cmp	r5, r3
 159 00b2 DEDB     		blt	.L3
  54:sources\asw/cfar.c ****     }
  55:sources\asw/cfar.c ****     
  56:sources\asw/cfar.c ****     fft_magnitude[0] = 0;
 160              		.loc 1 56 0 is_stmt 1
 161 00b4 0023     		movs	r3, #0
 162 00b6 3360     		str	r3, [r6]	@ float
  57:sources\asw/cfar.c **** 
  58:sources\asw/cfar.c ****     for (i = params->NR + params->NG; i < params->N - params->NR - params->NG; i++)
 163              		.loc 1 58 0
 164 00b8 DBF80420 		ldr	r2, [fp, #4]
 165 00bc DBF80830 		ldr	r3, [fp, #8]
 166 00c0 02EB030A 		add	r10, r2, r3
 167              	.LVL27:
 168 00c4 50E0     		b	.L4
ARM GAS  C:\Users\HP\AppData\Local\Temp\cc7Hwfq7.s 			page 5


 169              	.LVL28:
 170              	.L12:
  59:sources\asw/cfar.c ****     {
  60:sources\asw/cfar.c ****         noise_level_m = 0;
  61:sources\asw/cfar.c **** 
  62:sources\asw/cfar.c ****         // Sum over the left reference cells
  63:sources\asw/cfar.c ****         for (j = i - params->NR - params->NG; j < i - params->NG; j++)
 171              		.loc 1 63 0
 172 00c6 C8EB0A04 		rsb	r4, r8, r10
 173 00ca C9EB0404 		rsb	r4, r9, r4
 174              	.LVL29:
  60:sources\asw/cfar.c **** 
 175              		.loc 1 60 0
 176 00ce 0025     		movs	r5, #0
 177              		.loc 1 63 0
 178 00d0 06E0     		b	.L5
 179              	.LVL30:
 180              	.L6:
  64:sources\asw/cfar.c ****         {
  65:sources\asw/cfar.c ****             noise_level_m += fft_magnitude[j];
 181              		.loc 1 65 0 discriminator 3
 182 00d2 56F82410 		ldr	r1, [r6, r4, lsl #2]	@ float
 183 00d6 2846     		mov	r0, r5
 184 00d8 FFF7FEFF 		bl	__aeabi_fadd
 185              	.LVL31:
 186 00dc 0546     		mov	r5, r0
 187              	.LVL32:
  63:sources\asw/cfar.c ****         {
 188              		.loc 1 63 0 discriminator 3
 189 00de 0134     		adds	r4, r4, #1
 190              	.LVL33:
 191              	.L5:
  63:sources\asw/cfar.c ****         {
 192              		.loc 1 63 0 is_stmt 0 discriminator 1
 193 00e0 C9EB0A03 		rsb	r3, r9, r10
 194 00e4 9C42     		cmp	r4, r3
 195 00e6 F4DB     		blt	.L6
  66:sources\asw/cfar.c ****         }
  67:sources\asw/cfar.c **** 
  68:sources\asw/cfar.c ****         // Sum over the right reference cells
  69:sources\asw/cfar.c ****         for (j = i + params->NG + 1; j <= i + params->NG + params->NR; j++)
 196              		.loc 1 69 0 is_stmt 1
 197 00e8 D144     		add	r9, r9, r10
 198 00ea 09F10104 		add	r4, r9, #1
 199              	.LVL34:
 200 00ee 06E0     		b	.L7
 201              	.L8:
  70:sources\asw/cfar.c ****         {
  71:sources\asw/cfar.c ****             noise_level_m += fft_magnitude[j];
 202              		.loc 1 71 0 discriminator 3
 203 00f0 56F82410 		ldr	r1, [r6, r4, lsl #2]	@ float
 204 00f4 2846     		mov	r0, r5
 205 00f6 FFF7FEFF 		bl	__aeabi_fadd
 206              	.LVL35:
 207 00fa 0546     		mov	r5, r0
 208              	.LVL36:
  69:sources\asw/cfar.c ****         {
ARM GAS  C:\Users\HP\AppData\Local\Temp\cc7Hwfq7.s 			page 6


 209              		.loc 1 69 0 discriminator 3
 210 00fc 0134     		adds	r4, r4, #1
 211              	.LVL37:
 212              	.L7:
  69:sources\asw/cfar.c ****         {
 213              		.loc 1 69 0 is_stmt 0 discriminator 1
 214 00fe 08EB0903 		add	r3, r8, r9
 215 0102 9C42     		cmp	r4, r3
 216 0104 F4DD     		ble	.L8
  72:sources\asw/cfar.c ****         }
  73:sources\asw/cfar.c **** 
  74:sources\asw/cfar.c ****         noise_level_m /= (5.0 * params->NR); // Average noise level
 217              		.loc 1 74 0 is_stmt 1
 218 0106 4046     		mov	r0, r8
 219 0108 FFF7FEFF 		bl	__aeabi_i2d
 220              	.LVL38:
 221 010c 0022     		movs	r2, #0
 222 010e 204B     		ldr	r3, .L16+8
 223 0110 FFF7FEFF 		bl	__aeabi_dmul
 224              	.LVL39:
 225 0114 8046     		mov	r8, r0
 226 0116 8946     		mov	r9, r1
 227 0118 2846     		mov	r0, r5
 228 011a FFF7FEFF 		bl	__aeabi_f2d
 229              	.LVL40:
 230 011e 4246     		mov	r2, r8
 231 0120 4B46     		mov	r3, r9
 232 0122 FFF7FEFF 		bl	__aeabi_ddiv
 233              	.LVL41:
 234 0126 FFF7FEFF 		bl	__aeabi_d2f
 235              	.LVL42:
  75:sources\asw/cfar.c **** 
  76:sources\asw/cfar.c ****         // Compute Threshold
  77:sources\asw/cfar.c ****         params->threshold_m[i] = alpha * noise_level_m;
 236              		.loc 1 77 0
 237 012a 0146     		mov	r1, r0
 238 012c 7868     		ldr	r0, [r7, #4]	@ float
 239              	.LVL43:
 240 012e FFF7FEFF 		bl	__aeabi_fmul
 241              	.LVL44:
 242 0132 0AF58273 		add	r3, r10, #260
 243 0136 4BF82300 		str	r0, [fp, r3, lsl #2]	@ float
  78:sources\asw/cfar.c ****     
  79:sources\asw/cfar.c ****         // Apply Threshold to the CUT (Cell Under Test)
  80:sources\asw/cfar.c ****         if (fft_magnitude[i] > params->threshold_m[i])
 244              		.loc 1 80 0
 245 013a 56F82A10 		ldr	r1, [r6, r10, lsl #2]	@ float
 246 013e FFF7FEFF 		bl	__aeabi_fcmplt
 247              	.LVL45:
 248 0142 58B1     		cbz	r0, .L14
  81:sources\asw/cfar.c ****         {
  82:sources\asw/cfar.c ****             params->detections[i] = 1;
 249              		.loc 1 82 0
 250 0144 0BEB0A03 		add	r3, fp, r10
 251 0148 0122     		movs	r2, #1
 252 014a 1A74     		strb	r2, [r3, #16]
  83:sources\asw/cfar.c ****             params->CFAR_filled++;
ARM GAS  C:\Users\HP\AppData\Local\Temp\cc7Hwfq7.s 			page 7


 253              		.loc 1 83 0
 254 014c 41F21042 		movw	r2, #5136
 255 0150 5BF80230 		ldr	r3, [fp, r2]
 256 0154 0133     		adds	r3, r3, #1
 257 0156 4BF80230 		str	r3, [fp, r2]
 258 015a 03E0     		b	.L11
 259              	.L14:
  84:sources\asw/cfar.c ****         }
  85:sources\asw/cfar.c ****         else
  86:sources\asw/cfar.c ****         {
  87:sources\asw/cfar.c ****             params->detections[i] = 0;
 260              		.loc 1 87 0
 261 015c 0BEB0A03 		add	r3, fp, r10
 262 0160 0022     		movs	r2, #0
 263 0162 1A74     		strb	r2, [r3, #16]
 264              	.L11:
  58:sources\asw/cfar.c ****     {
 265              		.loc 1 58 0 discriminator 2
 266 0164 0AF1010A 		add	r10, r10, #1
 267              	.LVL46:
 268              	.L4:
  58:sources\asw/cfar.c ****     {
 269              		.loc 1 58 0 is_stmt 0 discriminator 1
 270 0168 DBF80030 		ldr	r3, [fp]
 271 016c DBF80480 		ldr	r8, [fp, #4]
 272 0170 C8EB0303 		rsb	r3, r8, r3
 273 0174 DBF80890 		ldr	r9, [fp, #8]
 274 0178 C9EB0303 		rsb	r3, r9, r3
 275 017c 9A45     		cmp	r10, r3
 276 017e A2DB     		blt	.L12
  88:sources\asw/cfar.c ****         }
  89:sources\asw/cfar.c ****     }
  90:sources\asw/cfar.c **** }
 277              		.loc 1 90 0 is_stmt 1
 278 0180 0C37     		adds	r7, r7, #12
 279              		.cfi_def_cfa_offset 36
 280              	.LVL47:
 281 0182 BD46     		mov	sp, r7
 282              		.cfi_def_cfa_register 13
 283              		@ sp needed
 284 0184 BDE8F08F 		pop	{r4, r5, r6, r7, r8, r9, r10, fp, pc}
 285              	.LVL48:
 286              	.L17:
 287              		.align	2
 288              	.L16:
 289 0188 0000F0BF 		.word	-1074790400
 290 018c 0000F03F 		.word	1072693248
 291 0190 00001440 		.word	1075052544
 292              		.cfi_endproc
 293              	.LFE63:
 294              		.size	CFAR, .-CFAR
 295              		.section	.text.sendCFARData,"ax",%progbits
 296              		.align	2
 297              		.global	sendCFARData
 298              		.thumb
 299              		.thumb_func
 300              		.type	sendCFARData, %function
ARM GAS  C:\Users\HP\AppData\Local\Temp\cc7Hwfq7.s 			page 8


 301              	sendCFARData:
 302              	.LFB64:
  91:sources\asw/cfar.c **** 
  92:sources\asw/cfar.c **** /**
  93:sources\asw/cfar.c ****  * @brief Sends CFAR (Constant False Alarm Rate) threshold and detection data via UART.
  94:sources\asw/cfar.c ****  * 
  95:sources\asw/cfar.c ****  * This function sends the computed CFAR threshold values and detection results over UART.
  96:sources\asw/cfar.c ****  * It first sends the threshold values, followed by the detection results.
  97:sources\asw/cfar.c ****  *
  98:sources\asw/cfar.c ****  * @param params Pointer to the FFT_CFAR_t structure containing the parameters and results for CFAR
  99:sources\asw/cfar.c ****  * 
 100:sources\asw/cfar.c ****  * The FFT_CFAR_t structure should include the following fields:
 101:sources\asw/cfar.c ****  * - N: Number of points in the FFT array.
 102:sources\asw/cfar.c ****  * - threshold_m: Array containing the computed threshold values.
 103:sources\asw/cfar.c ****  * - detections: Array containing the detection results (1 for detection, 0 for no detection).
 104:sources\asw/cfar.c ****  * 
 105:sources\asw/cfar.c ****  * This function will send each float value in the threshold_m array as a sequence of bytes.
 106:sources\asw/cfar.c ****  * Each detection result will be sent as a single byte.
 107:sources\asw/cfar.c ****  * The UART_LOG_PutChar function is assumed to be defined elsewhere for UART communication.
 108:sources\asw/cfar.c ****  *
 109:sources\asw/cfar.c ****  * @return void
 110:sources\asw/cfar.c ****  */
 111:sources\asw/cfar.c **** void sendCFARData(FFT_CFAR_t *params)
 112:sources\asw/cfar.c **** {
 303              		.loc 1 112 0
 304              		.cfi_startproc
 305              		@ args = 0, pretend = 0, frame = 16
 306              		@ frame_needed = 0, uses_anonymous_args = 0
 307              	.LVL49:
 308 0000 70B5     		push	{r4, r5, r6, lr}
 309              		.cfi_def_cfa_offset 16
 310              		.cfi_offset 4, -16
 311              		.cfi_offset 5, -12
 312              		.cfi_offset 6, -8
 313              		.cfi_offset 14, -4
 314 0002 84B0     		sub	sp, sp, #16
 315              		.cfi_def_cfa_offset 32
 316 0004 0546     		mov	r5, r0
 317              	.LVL50:
 318              	.LBB3:
 113:sources\asw/cfar.c ****     // Send CFAR threshold data    
 114:sources\asw/cfar.c ****     for (int32_t i = 0; i < params->N; i++)
 319              		.loc 1 114 0
 320 0006 0026     		movs	r6, #0
 321 0008 13E0     		b	.L19
 322              	.LVL51:
 323              	.L22:
 324              	.LBB4:
 115:sources\asw/cfar.c ****     {
 116:sources\asw/cfar.c ****         float value = params->threshold_m[i];
 325              		.loc 1 116 0
 326 000a 06F58273 		add	r3, r6, #260
 327 000e 55F82330 		ldr	r3, [r5, r3, lsl #2]	@ float
 328              	.LVL52:
 117:sources\asw/cfar.c ****         uint8_t bytes[sizeof(float)];
 118:sources\asw/cfar.c ****         
 119:sources\asw/cfar.c ****         memcpy(bytes, &value, sizeof(float)); // Copy float bytes to byte array
ARM GAS  C:\Users\HP\AppData\Local\Temp\cc7Hwfq7.s 			page 9


 329              		.loc 1 119 0
 330 0012 0193     		str	r3, [sp, #4]	@ float
 331 0014 019B     		ldr	r3, [sp, #4]
 332              	.LVL53:
 333 0016 0393     		str	r3, [sp, #12]
 334              	.LVL54:
 335              	.LBB5:
 120:sources\asw/cfar.c **** 
 121:sources\asw/cfar.c ****         for (uint8 b = 0; b < sizeof(float); b++)
 336              		.loc 1 121 0
 337 0018 0024     		movs	r4, #0
 338 001a 07E0     		b	.L20
 339              	.LVL55:
 340              	.L21:
 122:sources\asw/cfar.c ****         {
 123:sources\asw/cfar.c ****             UART_LOG_PutChar(bytes[b]);
 341              		.loc 1 123 0 discriminator 3
 342 001c 04AB     		add	r3, sp, #16
 343 001e 2344     		add	r3, r3, r4
 344 0020 13F8040C 		ldrb	r0, [r3, #-4]	@ zero_extendqisi2
 345 0024 FFF7FEFF 		bl	UART_LOG_PutChar
 346              	.LVL56:
 121:sources\asw/cfar.c ****         {
 347              		.loc 1 121 0 discriminator 3
 348 0028 0134     		adds	r4, r4, #1
 349              	.LVL57:
 350 002a E4B2     		uxtb	r4, r4
 351              	.LVL58:
 352              	.L20:
 121:sources\asw/cfar.c ****         {
 353              		.loc 1 121 0 is_stmt 0 discriminator 1
 354 002c 032C     		cmp	r4, #3
 355 002e F5D9     		bls	.L21
 356              	.LBE5:
 357              	.LBE4:
 114:sources\asw/cfar.c ****     {
 358              		.loc 1 114 0 is_stmt 1 discriminator 2
 359 0030 0136     		adds	r6, r6, #1
 360              	.LVL59:
 361              	.L19:
 114:sources\asw/cfar.c ****     {
 362              		.loc 1 114 0 is_stmt 0 discriminator 1
 363 0032 2B68     		ldr	r3, [r5]
 364 0034 9E42     		cmp	r6, r3
 365 0036 E8DB     		blt	.L22
 366 0038 0024     		movs	r4, #0
 367 003a 04E0     		b	.L23
 368              	.LVL60:
 369              	.L24:
 370              	.LBE3:
 371              	.LBB6:
 124:sources\asw/cfar.c ****         }
 125:sources\asw/cfar.c ****     }    
 126:sources\asw/cfar.c **** 
 127:sources\asw/cfar.c ****     // Send detection results
 128:sources\asw/cfar.c ****     for (int32_t i = 0; i < params->N; i++)
 129:sources\asw/cfar.c ****     {
ARM GAS  C:\Users\HP\AppData\Local\Temp\cc7Hwfq7.s 			page 10


 130:sources\asw/cfar.c ****         UART_LOG_PutChar(params->detections[i]);
 372              		.loc 1 130 0 is_stmt 1 discriminator 3
 373 003c 2B19     		adds	r3, r5, r4
 374 003e 187C     		ldrb	r0, [r3, #16]	@ zero_extendqisi2
 375 0040 FFF7FEFF 		bl	UART_LOG_PutChar
 376              	.LVL61:
 128:sources\asw/cfar.c ****     {
 377              		.loc 1 128 0 discriminator 3
 378 0044 0134     		adds	r4, r4, #1
 379              	.LVL62:
 380              	.L23:
 128:sources\asw/cfar.c ****     {
 381              		.loc 1 128 0 is_stmt 0 discriminator 1
 382 0046 2B68     		ldr	r3, [r5]
 383 0048 9C42     		cmp	r4, r3
 384 004a F7DB     		blt	.L24
 385              	.LBE6:
 131:sources\asw/cfar.c ****     }
 132:sources\asw/cfar.c **** }
 386              		.loc 1 132 0 is_stmt 1
 387 004c 04B0     		add	sp, sp, #16
 388              		.cfi_def_cfa_offset 16
 389              		@ sp needed
 390 004e 70BD     		pop	{r4, r5, r6, pc}
 391              		.cfi_endproc
 392              	.LFE64:
 393              		.size	sendCFARData, .-sendCFARData
 394              		.text
 395              	.Letext0:
 396              		.file 2 "c:\\program files (x86)\\cypress\\psoc creator\\4.4\\psoc creator\\import\\gnu\\arm\\5.4.
 397              		.file 3 "c:\\program files (x86)\\cypress\\psoc creator\\4.4\\psoc creator\\import\\gnu\\arm\\5.4.
 398              		.file 4 "Generated_Source\\PSoC5/cytypes.h"
 399              		.file 5 "sources\\asw\\cfar.h"
 400              		.file 6 "Generated_Source\\PSoC5/core_cm3.h"
 401              		.file 7 "c:\\program files (x86)\\cypress\\psoc creator\\4.4\\psoc creator\\import\\gnu\\arm\\5.4.
 402              		.file 8 "Generated_Source\\PSoC5/UART_LOG.h"