ARM GAS  C:\Users\HP\AppData\Local\Temp\ccIyAK7K.s 			page 1


   1              		.syntax unified
   2              		.cpu cortex-m3
   3              		.fpu softvfp
   4              		.eabi_attribute 20, 1
   5              		.eabi_attribute 21, 1
   6              		.eabi_attribute 23, 3
   7              		.eabi_attribute 24, 1
   8              		.eabi_attribute 25, 1
   9              		.eabi_attribute 26, 1
  10              		.eabi_attribute 30, 1
  11              		.eabi_attribute 34, 1
  12              		.eabi_attribute 18, 4
  13              		.thumb
  14              		.syntax unified
  15              		.file	"state_machine.c"
  16              		.text
  17              	.Ltext0:
  18              		.cfi_sections	.debug_frame
  19              		.section	.text.handleIdleState,"ax",%progbits
  20              		.align	2
  21              		.global	handleIdleState
  22              		.thumb
  23              		.thumb_func
  24              		.type	handleIdleState, %function
  25              	handleIdleState:
  26              	.LFB120:
  27              		.file 1 "sources\\asw\\state_machine.c"
   1:sources\asw/state_machine.c **** /**
   2:sources\asw/state_machine.c ****  * @file state_machine.c
   3:sources\asw/state_machine.c ****  * @brief State machine implementation file.
   4:sources\asw/state_machine.c ****  * This file contains the implementations of the state machine functions.
   5:sources\asw/state_machine.c ****  */
   6:sources\asw/state_machine.c **** 
   7:sources\asw/state_machine.c **** #include <stdio.h>
   8:sources\asw/state_machine.c **** #include <stdlib.h>
   9:sources\asw/state_machine.c **** 
  10:sources\asw/state_machine.c **** #include "project.h"
  11:sources\asw/state_machine.c **** #include "state_machine.h"
  12:sources\asw/state_machine.c **** #include "interrupt_handlers.h"
  13:sources\asw/state_machine.c **** #include "hardware_init.h"
  14:sources\asw/state_machine.c **** 
  15:sources\asw/state_machine.c **** #if(USE_FFT_LIB == 1)
  16:sources\asw/state_machine.c **** #include "fft_application.h"
  17:sources\asw/state_machine.c **** #endif
  18:sources\asw/state_machine.c **** 
  19:sources\asw/state_machine.c **** /**
  20:sources\asw/state_machine.c ****  * @brief Handle the idle state.
  21:sources\asw/state_machine.c ****  *
  22:sources\asw/state_machine.c ****  * This function manages the behavior of the state machine when it is in the idle state.
  23:sources\asw/state_machine.c ****  * It sets the appropriate LED indicators, resets the sample count, and checks the push button stat
  24:sources\asw/state_machine.c ****  * to transition to the sampling state.
  25:sources\asw/state_machine.c ****  *
  26:sources\asw/state_machine.c ****  * @param sm Pointer to the state machine structure.
  27:sources\asw/state_machine.c ****  * 
  28:sources\asw/state_machine.c ****  * The StateMachine_t structure should include the following fields:
  29:sources\asw/state_machine.c ****  * - currentState: The current state of the state machine.
  30:sources\asw/state_machine.c ****  * - sampleCount: Counter for the number of samples.
ARM GAS  C:\Users\HP\AppData\Local\Temp\ccIyAK7K.s 			page 2


  31:sources\asw/state_machine.c ****  * 
  32:sources\asw/state_machine.c ****  * The function sets the green LED to indicate the idle state, and it transitions to the sampling s
  33:sources\asw/state_machine.c ****  * when the push button is pressed.
  34:sources\asw/state_machine.c ****  *
  35:sources\asw/state_machine.c ****  * @return void
  36:sources\asw/state_machine.c ****  */
  37:sources\asw/state_machine.c **** void handleIdleState(StateMachine_t *sm)
  38:sources\asw/state_machine.c **** {
  28              		.loc 1 38 0
  29              		.cfi_startproc
  30              		@ args = 0, pretend = 0, frame = 0
  31              		@ frame_needed = 0, uses_anonymous_args = 0
  32              	.LVL0:
  33 0000 10B5     		push	{r4, lr}
  34              		.cfi_def_cfa_offset 8
  35              		.cfi_offset 4, -8
  36              		.cfi_offset 14, -4
  37 0002 0446     		mov	r4, r0
  39:sources\asw/state_machine.c ****     #if (DEBUG_ON == 1)
  40:sources\asw/state_machine.c ****         UART_LOG_PutString("State: Idle\n");
  41:sources\asw/state_machine.c ****     #endif
  42:sources\asw/state_machine.c ****     
  43:sources\asw/state_machine.c ****     Green_LED_Write(1);
  38              		.loc 1 43 0
  39 0004 0120     		movs	r0, #1
  40              	.LVL1:
  41 0006 FFF7FEFF 		bl	Green_LED_Write
  42              	.LVL2:
  44:sources\asw/state_machine.c ****     Red_LED_Write(0);
  43              		.loc 1 44 0
  44 000a 0020     		movs	r0, #0
  45 000c FFF7FEFF 		bl	Red_LED_Write
  46              	.LVL3:
  45:sources\asw/state_machine.c ****     Yellow_LED_Write(0);
  47              		.loc 1 45 0
  48 0010 0020     		movs	r0, #0
  49 0012 FFF7FEFF 		bl	Yellow_LED_Write
  50              	.LVL4:
  46:sources\asw/state_machine.c ****     
  47:sources\asw/state_machine.c ****     sm->sampleCount = 0;
  51              		.loc 1 47 0
  52 0016 0023     		movs	r3, #0
  53 0018 84F80438 		strb	r3, [r4, #2052]
  48:sources\asw/state_machine.c ****     if(Push_button_Read() == 0)
  54              		.loc 1 48 0
  55 001c FFF7FEFF 		bl	Push_button_Read
  56              	.LVL5:
  57 0020 08B9     		cbnz	r0, .L1
  49:sources\asw/state_machine.c ****     {
  50:sources\asw/state_machine.c ****         sm->currentState = STATE_SAMPLING;
  58              		.loc 1 50 0
  59 0022 0123     		movs	r3, #1
  60 0024 2370     		strb	r3, [r4]
  61              	.L1:
  62 0026 10BD     		pop	{r4, pc}
  63              		.cfi_endproc
  64              	.LFE120:
ARM GAS  C:\Users\HP\AppData\Local\Temp\ccIyAK7K.s 			page 3


  65              		.size	handleIdleState, .-handleIdleState
  66              		.section	.text.handleSamplingState,"ax",%progbits
  67              		.align	2
  68              		.global	handleSamplingState
  69              		.thumb
  70              		.thumb_func
  71              		.type	handleSamplingState, %function
  72              	handleSamplingState:
  73              	.LFB121:
  51:sources\asw/state_machine.c ****     }
  52:sources\asw/state_machine.c **** }
  53:sources\asw/state_machine.c **** 
  54:sources\asw/state_machine.c **** /**
  55:sources\asw/state_machine.c ****  * @brief Handle the sampling state.
  56:sources\asw/state_machine.c ****  *
  57:sources\asw/state_machine.c ****  * This function manages the behavior of the state machine when it is in the sampling state.
  58:sources\asw/state_machine.c ****  * It sets the appropriate LED indicators, clears the ADC results buffer, starts the ADC conversion
  59:sources\asw/state_machine.c ****  * and collects 1024 ADC samples. It also transitions to the UART transfer state if the start sampl
  60:sources\asw/state_machine.c ****  *
  61:sources\asw/state_machine.c ****  * @param sm Pointer to the state machine structure.
  62:sources\asw/state_machine.c ****  * 
  63:sources\asw/state_machine.c ****  * The StateMachine_t structure should include the following fields:
  64:sources\asw/state_machine.c ****  * - currentState: The current state of the state machine.
  65:sources\asw/state_machine.c ****  * - adcResults: Array to store ADC conversion results.
  66:sources\asw/state_machine.c ****  * - startSampleCommand: Flag indicating whether to start sampling.
  67:sources\asw/state_machine.c ****  * 
  68:sources\asw/state_machine.c ****  * The function sets the red LED to indicate the sampling state, collects ADC samples, and transiti
  69:sources\asw/state_machine.c ****  * the UART transfer state if the start sample command is set.
  70:sources\asw/state_machine.c ****  *
  71:sources\asw/state_machine.c ****  * @return void
  72:sources\asw/state_machine.c ****  */
  73:sources\asw/state_machine.c **** void handleSamplingState(StateMachine_t *sm)
  74:sources\asw/state_machine.c **** {
  74              		.loc 1 74 0
  75              		.cfi_startproc
  76              		@ args = 0, pretend = 0, frame = 0
  77              		@ frame_needed = 0, uses_anonymous_args = 0
  78              	.LVL6:
  79 0000 38B5     		push	{r3, r4, r5, lr}
  80              		.cfi_def_cfa_offset 16
  81              		.cfi_offset 3, -16
  82              		.cfi_offset 4, -12
  83              		.cfi_offset 5, -8
  84              		.cfi_offset 14, -4
  85 0002 0546     		mov	r5, r0
  75:sources\asw/state_machine.c ****     #if (DEBUG_ON == 1)
  76:sources\asw/state_machine.c ****         UART_LOG_PutString("State: Sampling\n");
  77:sources\asw/state_machine.c ****         char buffer_samplingstate[10];
  78:sources\asw/state_machine.c ****     #endif
  79:sources\asw/state_machine.c ****     
  80:sources\asw/state_machine.c ****     Green_LED_Write(0);
  86              		.loc 1 80 0
  87 0004 0020     		movs	r0, #0
  88              	.LVL7:
  89 0006 FFF7FEFF 		bl	Green_LED_Write
  90              	.LVL8:
  81:sources\asw/state_machine.c ****     Red_LED_Write(1);
ARM GAS  C:\Users\HP\AppData\Local\Temp\ccIyAK7K.s 			page 4


  91              		.loc 1 81 0
  92 000a 0120     		movs	r0, #1
  93 000c FFF7FEFF 		bl	Red_LED_Write
  94              	.LVL9:
  82:sources\asw/state_machine.c ****     Yellow_LED_Write(0);
  95              		.loc 1 82 0
  96 0010 0020     		movs	r0, #0
  97 0012 FFF7FEFF 		bl	Yellow_LED_Write
  98              	.LVL10:
  83:sources\asw/state_machine.c ****     
  84:sources\asw/state_machine.c ****     memset(sm->adcResults, 0, sizeof(sm->adcResults));
  99              		.loc 1 84 0
 100 0016 4FF40062 		mov	r2, #2048
 101 001a 0021     		movs	r1, #0
 102 001c 281D     		adds	r0, r5, #4
 103 001e FFF7FEFF 		bl	memset
 104              	.LVL11:
  85:sources\asw/state_machine.c ****     
  86:sources\asw/state_machine.c ****     ADC_StartConvert();
 105              		.loc 1 86 0
 106 0022 FFF7FEFF 		bl	ADC_StartConvert
 107              	.LVL12:
 108              	.LBB2:
  87:sources\asw/state_machine.c ****     
  88:sources\asw/state_machine.c ****     for(int i = 0; i < 1024; i++)
 109              		.loc 1 88 0
 110 0026 0024     		movs	r4, #0
 111 0028 08E0     		b	.L5
 112              	.LVL13:
 113              	.L6:
  89:sources\asw/state_machine.c ****     {
  90:sources\asw/state_machine.c ****         ADC_IsEndConversion(ADC_WAIT_FOR_RESULT);
 114              		.loc 1 90 0 discriminator 3
 115 002a 0020     		movs	r0, #0
 116 002c FFF7FEFF 		bl	ADC_IsEndConversion
 117              	.LVL14:
  91:sources\asw/state_machine.c ****         sm->adcResults[i] = ADC_GetResult16();
 118              		.loc 1 91 0 discriminator 3
 119 0030 FFF7FEFF 		bl	ADC_GetResult16
 120              	.LVL15:
 121 0034 05EB4403 		add	r3, r5, r4, lsl #1
 122 0038 9880     		strh	r0, [r3, #4]	@ movhi
  88:sources\asw/state_machine.c ****     {
 123              		.loc 1 88 0 discriminator 3
 124 003a 0134     		adds	r4, r4, #1
 125              	.LVL16:
 126              	.L5:
  88:sources\asw/state_machine.c ****     {
 127              		.loc 1 88 0 is_stmt 0 discriminator 1
 128 003c B4F5806F 		cmp	r4, #1024
 129 0040 F3DB     		blt	.L6
 130              	.LBE2:
  92:sources\asw/state_machine.c ****         #if (DEBUG_ON == 1)
  93:sources\asw/state_machine.c ****             itoa(i, buffer_samplingstate, 10);
  94:sources\asw/state_machine.c ****             UART_LOG_PutString("Iterator Value: ");
  95:sources\asw/state_machine.c ****             UART_LOG_PutString(buffer_samplingstate);
  96:sources\asw/state_machine.c ****             UART_LOG_PutString("\n");
ARM GAS  C:\Users\HP\AppData\Local\Temp\ccIyAK7K.s 			page 5


  97:sources\asw/state_machine.c ****         #endif
  98:sources\asw/state_machine.c ****     }
  99:sources\asw/state_machine.c ****     
 100:sources\asw/state_machine.c ****     if(sm->startSampleCommand)
 131              		.loc 1 100 0 is_stmt 1
 132 0042 6B78     		ldrb	r3, [r5, #1]	@ zero_extendqisi2
 133 0044 1BB1     		cbz	r3, .L4
 101:sources\asw/state_machine.c ****     {
 102:sources\asw/state_machine.c ****         #if (DEBUG_ON == 1)
 103:sources\asw/state_machine.c ****             UART_LOG_PutString("Command: S\n");
 104:sources\asw/state_machine.c ****             char buffer_samplingstate[10];
 105:sources\asw/state_machine.c ****         #endif
 106:sources\asw/state_machine.c ****         sm->currentState = STATE_UART_TRANSFER;
 134              		.loc 1 106 0
 135 0046 0223     		movs	r3, #2
 136 0048 2B70     		strb	r3, [r5]
 107:sources\asw/state_machine.c ****         sm->startSampleCommand = 0;
 137              		.loc 1 107 0
 138 004a 0023     		movs	r3, #0
 139 004c 6B70     		strb	r3, [r5, #1]
 140              	.L4:
 141 004e 38BD     		pop	{r3, r4, r5, pc}
 142              		.cfi_endproc
 143              	.LFE121:
 144              		.size	handleSamplingState, .-handleSamplingState
 145              		.section	.text.handleUARTTransferState,"ax",%progbits
 146              		.align	2
 147              		.global	handleUARTTransferState
 148              		.thumb
 149              		.thumb_func
 150              		.type	handleUARTTransferState, %function
 151              	handleUARTTransferState:
 152              	.LFB122:
 108:sources\asw/state_machine.c ****     }
 109:sources\asw/state_machine.c **** }
 110:sources\asw/state_machine.c **** 
 111:sources\asw/state_machine.c **** /**
 112:sources\asw/state_machine.c ****  * @brief Handle the UART transfer state.
 113:sources\asw/state_machine.c ****  *
 114:sources\asw/state_machine.c ****  * This function manages the behavior of the state machine when it is in the UART transfer state.
 115:sources\asw/state_machine.c ****  * It sends the ADC results over UART, performs FFT processing, applies CFAR, and sends the CFAR da
 116:sources\asw/state_machine.c ****  * It also transitions between states based on the sample count and commands.
 117:sources\asw/state_machine.c ****  *
 118:sources\asw/state_machine.c ****  * @param sm Pointer to the state machine structure.
 119:sources\asw/state_machine.c ****  * @param cfar_param Pointer to the FFT_CFAR_t structure containing the parameters for CFAR process
 120:sources\asw/state_machine.c ****  * 
 121:sources\asw/state_machine.c ****  * The StateMachine_t structure should include the following fields:
 122:sources\asw/state_machine.c ****  * - currentState: The current state of the state machine.
 123:sources\asw/state_machine.c ****  * - adcResults: Array to store ADC conversion results.
 124:sources\asw/state_machine.c ****  * - FFT_Array: Array to store FFT results.
 125:sources\asw/state_machine.c ****  * - sampleCount: Counter for the number of samples.
 126:sources\asw/state_machine.c ****  * - startSampleCommand: Flag indicating whether to start sampling.
 127:sources\asw/state_machine.c ****  * - continueSampleCommand: Flag indicating whether to continue sampling.
 128:sources\asw/state_machine.c ****  * 
 129:sources\asw/state_machine.c ****  * The function sets the yellow LED to indicate the UART transfer state, sends ADC results over UAR
 130:sources\asw/state_machine.c ****  * performs FFT and CFAR processing if enabled, and transitions to the appropriate state based on c
 131:sources\asw/state_machine.c ****  *
ARM GAS  C:\Users\HP\AppData\Local\Temp\ccIyAK7K.s 			page 6


 132:sources\asw/state_machine.c ****  * @return void
 133:sources\asw/state_machine.c ****  */
 134:sources\asw/state_machine.c **** void handleUARTTransferState(StateMachine_t *sm, FFT_CFAR_t *cfar_param)
 135:sources\asw/state_machine.c **** {
 153              		.loc 1 135 0
 154              		.cfi_startproc
 155              		@ args = 0, pretend = 0, frame = 0
 156              		@ frame_needed = 0, uses_anonymous_args = 0
 157              	.LVL17:
 158 0000 2DE9F041 		push	{r4, r5, r6, r7, r8, lr}
 159              		.cfi_def_cfa_offset 24
 160              		.cfi_offset 4, -24
 161              		.cfi_offset 5, -20
 162              		.cfi_offset 6, -16
 163              		.cfi_offset 7, -12
 164              		.cfi_offset 8, -8
 165              		.cfi_offset 14, -4
 166 0004 0446     		mov	r4, r0
 167 0006 0F46     		mov	r7, r1
 136:sources\asw/state_machine.c ****     #if (DEBUG_ON == 1)
 137:sources\asw/state_machine.c ****         UART_LOG_PutString("State: Transfer\n");
 138:sources\asw/state_machine.c ****         char buffer_transferstate[10];
 139:sources\asw/state_machine.c ****         char buffer_count[10];
 140:sources\asw/state_machine.c ****     #endif
 141:sources\asw/state_machine.c ****     
 142:sources\asw/state_machine.c ****     Green_LED_Write(0);
 168              		.loc 1 142 0
 169 0008 0020     		movs	r0, #0
 170              	.LVL18:
 171 000a FFF7FEFF 		bl	Green_LED_Write
 172              	.LVL19:
 143:sources\asw/state_machine.c ****     Red_LED_Write(0);
 173              		.loc 1 143 0
 174 000e 0020     		movs	r0, #0
 175 0010 FFF7FEFF 		bl	Red_LED_Write
 176              	.LVL20:
 144:sources\asw/state_machine.c ****     Yellow_LED_Write(1);
 177              		.loc 1 144 0
 178 0014 0120     		movs	r0, #1
 179 0016 FFF7FEFF 		bl	Yellow_LED_Write
 180              	.LVL21:
 181              	.LBB3:
 145:sources\asw/state_machine.c ****         
 146:sources\asw/state_machine.c ****     for(int i = 0; i < 1024; i++)
 182              		.loc 1 146 0
 183 001a 0025     		movs	r5, #0
 184 001c 09E0     		b	.L10
 185              	.LVL22:
 186              	.L11:
 147:sources\asw/state_machine.c ****     {
 148:sources\asw/state_machine.c ****         #if (DEBUG_ON == 1)
 149:sources\asw/state_machine.c ****             UART_LOG_PutString("Transfer Start\n");
 150:sources\asw/state_machine.c ****         #endif
 151:sources\asw/state_machine.c ****         
 152:sources\asw/state_machine.c ****         UART_LOG_PutChar(sm->adcResults[i] & 0xFF); //Extracting LSB & sending to MATLAB
 187              		.loc 1 152 0 discriminator 3
 188 001e 04EB4506 		add	r6, r4, r5, lsl #1
ARM GAS  C:\Users\HP\AppData\Local\Temp\ccIyAK7K.s 			page 7


 189 0022 3079     		ldrb	r0, [r6, #4]	@ zero_extendqisi2
 190 0024 FFF7FEFF 		bl	UART_LOG_PutChar
 191              	.LVL23:
 153:sources\asw/state_machine.c ****         UART_LOG_PutChar(sm->adcResults[i] >> 8);   //Extracting MSB & sending to MATLAB
 192              		.loc 1 153 0 discriminator 3
 193 0028 B088     		ldrh	r0, [r6, #4]
 194 002a 000A     		lsrs	r0, r0, #8
 195 002c FFF7FEFF 		bl	UART_LOG_PutChar
 196              	.LVL24:
 146:sources\asw/state_machine.c ****     {
 197              		.loc 1 146 0 discriminator 3
 198 0030 0135     		adds	r5, r5, #1
 199              	.LVL25:
 200              	.L10:
 146:sources\asw/state_machine.c ****     {
 201              		.loc 1 146 0 is_stmt 0 discriminator 1
 202 0032 B5F5806F 		cmp	r5, #1024
 203 0036 F2DB     		blt	.L11
 204              	.LBE3:
 154:sources\asw/state_machine.c ****         
 155:sources\asw/state_machine.c ****         #if (DEBUG_ON == 1)
 156:sources\asw/state_machine.c ****             UART_LOG_PutString("\n");
 157:sources\asw/state_machine.c ****             UART_LOG_PutString("Transfer End\n");            
 158:sources\asw/state_machine.c ****             itoa(i, buffer_transferstate, 10);
 159:sources\asw/state_machine.c ****             UART_LOG_PutString("Iterator Value: ");
 160:sources\asw/state_machine.c ****             UART_LOG_PutString(buffer_transferstate);
 161:sources\asw/state_machine.c ****             UART_LOG_PutString("\n");
 162:sources\asw/state_machine.c ****         #endif
 163:sources\asw/state_machine.c ****     }
 164:sources\asw/state_machine.c ****     
 165:sources\asw/state_machine.c ****     #if(USE_FFT_LIB == 1)
 166:sources\asw/state_machine.c ****         
 167:sources\asw/state_machine.c ****     memset(sm->FFT_Array, 0, sizeof(sm->FFT_Array));
 205              		.loc 1 167 0 is_stmt 1
 206 0038 04F60808 		addw	r8, r4, #2056
 207 003c 4FF40052 		mov	r2, #8192
 208 0040 0021     		movs	r1, #0
 209 0042 4046     		mov	r0, r8
 210 0044 FFF7FEFF 		bl	memset
 211              	.LVL26:
 168:sources\asw/state_machine.c ****     
 169:sources\asw/state_machine.c ****     fft_app(sm->adcResults,sm->FFT_Array,1024);
 212              		.loc 1 169 0
 213 0048 4FF48062 		mov	r2, #1024
 214 004c 4146     		mov	r1, r8
 215 004e 201D     		adds	r0, r4, #4
 216 0050 FFF7FEFF 		bl	fft_app
 217              	.LVL27:
 218              	.LBB4:
 170:sources\asw/state_machine.c ****     
 171:sources\asw/state_machine.c ****     for(int32 fft_iter = 0; fft_iter < 2048; fft_iter++)
 219              		.loc 1 171 0
 220 0054 0026     		movs	r6, #0
 221 0056 17E0     		b	.L12
 222              	.LVL28:
 223              	.L13:
 172:sources\asw/state_machine.c ****     {
ARM GAS  C:\Users\HP\AppData\Local\Temp\ccIyAK7K.s 			page 8


 173:sources\asw/state_machine.c ****         UART_LOG_PutChar(sm->FFT_Array[fft_iter]);
 224              		.loc 1 173 0 discriminator 3
 225 0058 06F20225 		addw	r5, r6, #514
 226 005c 14F82500 		ldrb	r0, [r4, r5, lsl #2]	@ zero_extendqisi2
 227 0060 FFF7FEFF 		bl	UART_LOG_PutChar
 228              	.LVL29:
 174:sources\asw/state_machine.c ****         UART_LOG_PutChar(sm->FFT_Array[fft_iter]>>8);
 229              		.loc 1 174 0 discriminator 3
 230 0064 54F82500 		ldr	r0, [r4, r5, lsl #2]
 231 0068 C0F30720 		ubfx	r0, r0, #8, #8
 232 006c FFF7FEFF 		bl	UART_LOG_PutChar
 233              	.LVL30:
 175:sources\asw/state_machine.c ****         UART_LOG_PutChar(sm->FFT_Array[fft_iter]>>16);
 234              		.loc 1 175 0 discriminator 3
 235 0070 54F82500 		ldr	r0, [r4, r5, lsl #2]
 236 0074 C0F30740 		ubfx	r0, r0, #16, #8
 237 0078 FFF7FEFF 		bl	UART_LOG_PutChar
 238              	.LVL31:
 176:sources\asw/state_machine.c ****         UART_LOG_PutChar(sm->FFT_Array[fft_iter]>>24);
 239              		.loc 1 176 0 discriminator 3
 240 007c 54F82500 		ldr	r0, [r4, r5, lsl #2]
 241 0080 000E     		lsrs	r0, r0, #24
 242 0082 FFF7FEFF 		bl	UART_LOG_PutChar
 243              	.LVL32:
 171:sources\asw/state_machine.c ****     {
 244              		.loc 1 171 0 discriminator 3
 245 0086 0136     		adds	r6, r6, #1
 246              	.LVL33:
 247              	.L12:
 171:sources\asw/state_machine.c ****     {
 248              		.loc 1 171 0 is_stmt 0 discriminator 1
 249 0088 B6F5006F 		cmp	r6, #2048
 250 008c E4DB     		blt	.L13
 251              	.LBE4:
 177:sources\asw/state_machine.c ****     }
 178:sources\asw/state_machine.c ****     
 179:sources\asw/state_machine.c ****     // CFAR Computation and sending of data through UART for MATLAB analysis
 180:sources\asw/state_machine.c ****     CFAR(sm->FFT_Array, cfar_param);    
 252              		.loc 1 180 0 is_stmt 1
 253 008e 3946     		mov	r1, r7
 254 0090 4046     		mov	r0, r8
 255 0092 FFF7FEFF 		bl	CFAR
 256              	.LVL34:
 181:sources\asw/state_machine.c ****     sendCFARData(cfar_param);
 257              		.loc 1 181 0
 258 0096 3846     		mov	r0, r7
 259 0098 FFF7FEFF 		bl	sendCFARData
 260              	.LVL35:
 182:sources\asw/state_machine.c ****     
 183:sources\asw/state_machine.c ****     #endif
 184:sources\asw/state_machine.c **** 
 185:sources\asw/state_machine.c ****     sm->sampleCount++;
 261              		.loc 1 185 0
 262 009c 94F80438 		ldrb	r3, [r4, #2052]	@ zero_extendqisi2
 263 00a0 0133     		adds	r3, r3, #1
 264 00a2 DBB2     		uxtb	r3, r3
 265 00a4 84F80438 		strb	r3, [r4, #2052]
ARM GAS  C:\Users\HP\AppData\Local\Temp\ccIyAK7K.s 			page 9


 186:sources\asw/state_machine.c ****     
 187:sources\asw/state_machine.c ****     #if (DEBUG_ON == 1)
 188:sources\asw/state_machine.c ****         itoa(sm->sampleCount, buffer_count, 10);
 189:sources\asw/state_machine.c ****         UART_LOG_PutString("Count: ");
 190:sources\asw/state_machine.c ****         UART_LOG_PutString(buffer_count);
 191:sources\asw/state_machine.c ****         UART_LOG_PutString("\n");
 192:sources\asw/state_machine.c ****     #endif
 193:sources\asw/state_machine.c ****     
 194:sources\asw/state_machine.c ****     #if((DEBUG_CHO == 1) && (DEBUG_ON == 1))
 195:sources\asw/state_machine.c ****         if((sm->sampleCount < 10) && buttonPBchO)
 196:sources\asw/state_machine.c ****     #else
 197:sources\asw/state_machine.c ****     if((sm->sampleCount < 10) && sm->continueSampleCommand)
 266              		.loc 1 197 0
 267 00a8 092B     		cmp	r3, #9
 268 00aa 07D8     		bhi	.L14
 269              		.loc 1 197 0 is_stmt 0 discriminator 1
 270 00ac A278     		ldrb	r2, [r4, #2]	@ zero_extendqisi2
 271 00ae 2AB1     		cbz	r2, .L14
 198:sources\asw/state_machine.c ****     #endif
 199:sources\asw/state_machine.c ****     {
 200:sources\asw/state_machine.c ****         #if (DEBUG_ON == 1)
 201:sources\asw/state_machine.c ****             UART_LOG_PutString("Count < 10\n");
 202:sources\asw/state_machine.c ****         #endif
 203:sources\asw/state_machine.c ****         
 204:sources\asw/state_machine.c ****         sm->currentState = STATE_SAMPLING;
 272              		.loc 1 204 0 is_stmt 1
 273 00b0 0123     		movs	r3, #1
 274 00b2 2370     		strb	r3, [r4]
 205:sources\asw/state_machine.c ****         
 206:sources\asw/state_machine.c ****         #if((DEBUG_CHO == 1) && (DEBUG_ON == 1))
 207:sources\asw/state_machine.c ****             buttonPBchO = 0;    
 208:sources\asw/state_machine.c ****         #else
 209:sources\asw/state_machine.c ****         sm->continueSampleCommand = 0;
 275              		.loc 1 209 0
 276 00b4 0023     		movs	r3, #0
 277 00b6 A370     		strb	r3, [r4, #2]
 278 00b8 BDE8F081 		pop	{r4, r5, r6, r7, r8, pc}
 279              	.LVL36:
 280              	.L14:
 210:sources\asw/state_machine.c ****         #endif
 211:sources\asw/state_machine.c ****     }
 212:sources\asw/state_machine.c ****     else if((sm->sampleCount == 10) && sm->continueSampleCommand)
 281              		.loc 1 212 0
 282 00bc 0A2B     		cmp	r3, #10
 283 00be 04D1     		bne	.L9
 284              		.loc 1 212 0 is_stmt 0 discriminator 1
 285 00c0 A378     		ldrb	r3, [r4, #2]	@ zero_extendqisi2
 286 00c2 13B1     		cbz	r3, .L9
 213:sources\asw/state_machine.c ****     {
 214:sources\asw/state_machine.c ****         #if (DEBUG_ON == 1)
 215:sources\asw/state_machine.c ****             UART_LOG_PutString("Count == 10\n");
 216:sources\asw/state_machine.c ****         #endif
 217:sources\asw/state_machine.c ****         
 218:sources\asw/state_machine.c ****         sm->currentState = STATE_IDLE;
 287              		.loc 1 218 0 is_stmt 1
 288 00c4 0023     		movs	r3, #0
 289 00c6 2370     		strb	r3, [r4]
ARM GAS  C:\Users\HP\AppData\Local\Temp\ccIyAK7K.s 			page 10


 219:sources\asw/state_machine.c ****         
 220:sources\asw/state_machine.c ****         #if((DEBUG_CHO == 1) && (DEBUG_ON == 1))
 221:sources\asw/state_machine.c ****             buttonPBchO = 0;  
 222:sources\asw/state_machine.c ****         #else
 223:sources\asw/state_machine.c ****         sm->continueSampleCommand = 0;
 290              		.loc 1 223 0
 291 00c8 A370     		strb	r3, [r4, #2]
 292              	.L9:
 293 00ca BDE8F081 		pop	{r4, r5, r6, r7, r8, pc}
 294              		.cfi_endproc
 295              	.LFE122:
 296              		.size	handleUARTTransferState, .-handleUARTTransferState
 297 00ce 00BF     		.text
 298              	.Letext0:
 299              		.file 2 "c:\\program files (x86)\\cypress\\psoc creator\\4.4\\psoc creator\\import\\gnu\\arm\\5.4.
 300              		.file 3 "c:\\program files (x86)\\cypress\\psoc creator\\4.4\\psoc creator\\import\\gnu\\arm\\5.4.
 301              		.file 4 "Generated_Source\\PSoC5/cytypes.h"
 302              		.file 5 "sources\\asw\\cfar.h"
 303              		.file 6 "sources\\asw\\state_machine.h"
 304              		.file 7 "Generated_Source\\PSoC5/Green_LED.h"
 305              		.file 8 "Generated_Source\\PSoC5/Red_LED.h"
 306              		.file 9 "Generated_Source\\PSoC5/Yellow_LED.h"
 307              		.file 10 "Generated_Source\\PSoC5/Push_button.h"
 308              		.file 11 "Generated_Source\\PSoC5/ADC.h"
 309              		.file 12 "Generated_Source\\PSoC5/UART_LOG.h"
 310              		.file 13 ".\\sources\\bsw\\fft_application/fft_application.h"
 311              		.file 14 "Generated_Source\\PSoC5/core_cm3.h"